target datalayout = "e-m:e-p270:32:32-p271:32:32-p272:64:64-i64:64-i128:128-f80:128-n8:16:32:64-S128"
target triple = "x86_64-pc-linux-gnu"

%struct.CMS_ContentInfo_st = type { ptr, %union.anon, %struct.CMS_CTX_st }
%union.anon = type { ptr }
%struct.CMS_CTX_st = type { ptr, ptr }

@.str.14 = private unnamed_addr constant [29 x i8] c"../openssl/test/cmsapitest.c\00", align 1
@.str.36 = private unnamed_addr constant [2 x i8] c"0\00", align 1
@.str.43 = private unnamed_addr constant [17 x i8] c"ERR_peek_error()\00", align 1
@.str.47 = private unnamed_addr constant [50 x i8] c"bio = BIO_new_mem_buf(cms_data, sizeof(cms_data))\00", align 1
@.str.48 = private unnamed_addr constant [29 x i8] c"cms = d2i_CMS_bio(bio, NULL)\00", align 1
@.str.49 = private unnamed_addr constant [47 x i8] c"CMS_verify(cms, NULL, NULL, NULL, NULL, flags)\00", align 1
@.str.50 = private unnamed_addr constant [100 x i8] c"content = CMS_SignedData_verify(cms->d.signedData, NULL, NULL, NULL, NULL, NULL, flags, NULL, NULL)\00", align 1

; Function Attrs: nounwind uwtable
define internal i32 @test_d2i_CMS_bio_NULL() #0 {
  %1 = alloca ptr, align 8
  %2 = alloca ptr, align 8
  %3 = alloca ptr, align 8
  %4 = alloca i32, align 4
  %5 = alloca i32, align 4
  call void @llvm.lifetime.start.p0(i64 8, ptr %1) #5
  call void @llvm.lifetime.start.p0(i64 8, ptr %2) #5
  store ptr null, ptr %2, align 8, !tbaa !9
  call void @llvm.lifetime.start.p0(i64 8, ptr %3) #5
  store ptr null, ptr %3, align 8, !tbaa !13
  call void @llvm.lifetime.start.p0(i64 4, ptr %4) #5
  store i32 32, ptr %4, align 4, !tbaa !15
  call void @llvm.lifetime.start.p0(i64 4, ptr %5) #5
  store i32 0, ptr %5, align 4, !tbaa !15
  %6 = call ptr @BIO_new_mem_buf(ptr noundef @test_d2i_CMS_bio_NULL.cms_data, i32 noundef 1481)
  store ptr %6, ptr %1, align 8, !tbaa !9
  %7 = call i32 @test_ptr(ptr noundef @.str.14, i32 noundef 306, ptr noundef @.str.47, ptr noundef %6)
  %8 = icmp ne i32 %7, 0
  br i1 %8, label %9, label %30

9:                                                ; preds = %0
  %10 = load ptr, ptr %1, align 8, !tbaa !9
  %11 = call ptr @d2i_CMS_bio(ptr noundef %10, ptr noundef null)
  store ptr %11, ptr %3, align 8, !tbaa !13
  %12 = call i32 @test_ptr(ptr noundef @.str.14, i32 noundef 307, ptr noundef @.str.48, ptr noundef %11)
  %13 = icmp ne i32 %12, 0
  br i1 %13, label %14, label %30

14:                                               ; preds = %9
  %15 = load ptr, ptr %3, align 8, !tbaa !13
  %16 = load i32, ptr %4, align 4, !tbaa !15
  %17 = call i32 @CMS_verify(ptr noundef %15, ptr noundef null, ptr noundef null, ptr noundef null, ptr noundef null, i32 noundef %16)
  %18 = icmp ne i32 %17, 0
  %19 = zext i1 %18 to i32
  %20 = call i32 @test_true(ptr noundef @.str.14, i32 noundef 308, ptr noundef @.str.49, i32 noundef %19)
  %21 = icmp ne i32 %20, 0
  br i1 %21, label %22, label %30

22:                                               ; preds = %14
  %23 = load ptr, ptr %3, align 8, !tbaa !13
  %24 = getelementptr inbounds nuw %struct.CMS_ContentInfo_st, ptr %23, i32 0, i32 1
  %25 = load ptr, ptr %24, align 8, !tbaa !19
  %26 = load i32, ptr %4, align 4, !tbaa !15
  %27 = call ptr @CMS_SignedData_verify(ptr noundef %25, ptr noundef null, ptr noundef null, ptr noundef null, ptr noundef null, ptr noundef null, i32 noundef %26, ptr noundef null, ptr noundef null)
  store ptr %27, ptr %2, align 8, !tbaa !9
  %28 = call i32 @test_ptr(ptr noundef @.str.14, i32 noundef 311, ptr noundef @.str.50, ptr noundef %27)
  %29 = icmp ne i32 %28, 0
  br label %30

30:                                               ; preds = %22, %14, %9, %0
  %31 = phi i1 [ false, %14 ], [ false, %9 ], [ false, %0 ], [ %29, %22 ]
  %32 = zext i1 %31 to i32
  store i32 %32, ptr %5, align 4, !tbaa !15
  %33 = load ptr, ptr %2, align 8, !tbaa !9
  %34 = call i32 @BIO_free(ptr noundef %33)
  %35 = load ptr, ptr %3, align 8, !tbaa !13
  call void @CMS_ContentInfo_free(ptr noundef %35)
  %36 = load ptr, ptr %1, align 8, !tbaa !9
  %37 = call i32 @BIO_free(ptr noundef %36)
  %38 = load i32, ptr %5, align 4, !tbaa !15
  %39 = icmp ne i32 %38, 0
  br i1 %39, label %40, label %45

40:                                               ; preds = %30
  %41 = call i64 @ERR_peek_error()
  %42 = trunc i64 %41 to i32
  %43 = call i32 @test_int_eq(ptr noundef @.str.14, i32 noundef 315, ptr noundef @.str.43, ptr noundef @.str.36, i32 noundef %42, i32 noundef 0)
  %44 = icmp ne i32 %43, 0
  br label %45

45:                                               ; preds = %40, %30
  %46 = phi i1 [ false, %30 ], [ %44, %40 ]
  %47 = zext i1 %46 to i32
  call void @llvm.lifetime.end.p0(i64 4, ptr %5) #5
  call void @llvm.lifetime.end.p0(i64 4, ptr %4) #5
  call void @llvm.lifetime.end.p0(i64 8, ptr %3) #5
  call void @llvm.lifetime.end.p0(i64 8, ptr %2) #5
  call void @llvm.lifetime.end.p0(i64 8, ptr %1) #5
  ret i32 %47
}