; Function Attrs: nounwind uwtable
define internal range(i32 0, 2) i32 @test_d2i_CMS_bio_NULL() #1 {
  %1 = tail call ptr @BIO_new_mem_buf(ptr noundef nonnull @test_d2i_CMS_bio_NULL.cms_data, i32 noundef 1481) #5
  %2 = tail call i32 @test_ptr(ptr noundef nonnull @.str.14, i32 noundef 306, ptr noundef nonnull @.str.47, ptr noundef %1) #5
  %.not = icmp eq i32 %2, 0
  br i1 %.not, label %.critedge, label %3

3:                                                ; preds = %0
  %4 = tail call ptr @d2i_CMS_bio(ptr noundef %1, ptr noundef null) #5
  %5 = tail call i32 @test_ptr(ptr noundef nonnull @.str.14, i32 noundef 307, ptr noundef nonnull @.str.48, ptr noundef %4) #5
  %.not9 = icmp eq i32 %5, 0
  br i1 %.not9, label %.critedge, label %6

6:                                                ; preds = %3
  %7 = tail call i32 @CMS_verify(ptr noundef %4, ptr noundef null, ptr noundef null, ptr noundef null, ptr noundef null, i32 noundef 32) #5
  %8 = icmp ne i32 %7, 0
  %9 = zext i1 %8 to i32
  %10 = tail call i32 @test_true(ptr noundef nonnull @.str.14, i32 noundef 308, ptr noundef nonnull @.str.49, i32 noundef %9) #5
  %.not10 = icmp eq i32 %10, 0
  br i1 %.not10, label %.critedge, label %11

11:                                               ; preds = %6
  %12 = getelementptr inbounds nuw i8, ptr %4, i64 8
  %13 = load ptr, ptr %12, align 8, !tbaa !13
  %14 = tail call ptr @CMS_SignedData_verify(ptr noundef %13, ptr noundef null, ptr noundef null, ptr noundef null, ptr noundef null, ptr noundef null, i32 noundef 32, ptr noundef null, ptr noundef null) #5
  %15 = tail call i32 @test_ptr(ptr noundef nonnull @.str.14, i32 noundef 311, ptr noundef nonnull @.str.50, ptr noundef %14) #5
  %.not11 = icmp eq i32 %15, 0
  %16 = tail call i32 @BIO_free(ptr noundef %14) #5
  tail call void @CMS_ContentInfo_free(ptr noundef %4) #5
  %17 = tail call i32 @BIO_free(ptr noundef %1) #5
  br i1 %.not11, label %26, label %18

18:                                               ; preds = %11
  %19 = tail call i64 @ERR_peek_error() #5
  %20 = trunc i64 %19 to i32
  %21 = tail call i32 @test_int_eq(ptr noundef nonnull @.str.14, i32 noundef 315, ptr noundef nonnull @.str.43, ptr noundef nonnull @.str.36, i32 noundef %20, i32 noundef 0) #5
  %22 = icmp ne i32 %21, 0
  %23 = zext i1 %22 to i32
  br label %26

.critedge:                                        ; preds = %0, %3, %6
  %.08.ph = phi ptr [ null, %0 ], [ %4, %3 ], [ %4, %6 ]
  %24 = tail call i32 @BIO_free(ptr noundef null) #5
  tail call void @CMS_ContentInfo_free(ptr noundef %.08.ph) #5
  %25 = tail call i32 @BIO_free(ptr noundef %1) #5
  br label %26

26:                                               ; preds = %.critedge, %18, %11
  %27 = phi i32 [ 0, %11 ], [ %23, %18 ], [ 0, %.critedge ]
  ret i32 %27
}